(lp0
(F443.61865234375
F131.5365753173828
tp1
a(F444.81085205078125
F145.69961547851562
tp2
a(F445.2413024902344
F158.29681396484375
tp3
a(F445.7331848144531
F172.77476501464844
tp4
a(F445.9852294921875
F185.97549438476562
tp5
a(F447.3944396972656
F199.3833770751953
tp6
a(F448.4080810546875
F212.10186767578125
tp7
a(F449.40313720703125
F226.40325927734375
tp8
a(F449.9526062011719
F239.14588928222656
tp9
a(F450.6590881347656
F253.0664825439453
tp10
a(F451.4075927734375
F265.88067626953125
tp11
a(F452.9697570800781
F280.15240478515625
tp12
a(F453.3198547363281
F293.52813720703125
tp13
a(F454.5617980957031
F307.216552734375
tp14
a(F455.0129089355469
F320.1629333496094
tp15
a(F457.05615234375
F334.25457763671875
tp16
a(F457.52227783203125
F347.5014343261719
tp17
a(F430.0705871582031
F133.0474853515625
tp18
a(F430.5666198730469
F145.92510986328125
tp19
a(F431.4871520996094
F160.05783081054688
tp20
a(F431.5921936035156
F173.32325744628906
tp21
a(F433.03802490234375
F187.3777313232422
tp22
a(F433.37933349609375
F199.9506072998047
tp23
a(F434.2425231933594
F213.3533477783203
tp24
a(F435.3886413574219
F226.436767578125
tp25
a(F436.3373107910156
F240.53546142578125
tp26
a(F437.1207580566406
F253.7456817626953
tp27
a(F437.8992614746094
F267.0168151855469
tp28
a(F438.5516662597656
F280.5763854980469
tp29
a(F439.5598449707031
F294.1827392578125
tp30
a(F441.6260986328125
F307.2101135253906
tp31
a(F441.7217102050781
F321.09796142578125
tp32
a(F442.178466796875
F334.88348388671875
tp33
a(F443.6569519042969
F348.3866271972656
tp34
a(F416.1136474609375
F133.65875244140625
tp35
a(F417.24713134765625
F147.5823974609375
tp36
a(F417.48162841796875
F159.80323791503906
tp37
a(F418.5400695800781
F174.28842163085938
tp38
a(F419.4983215332031
F187.26907348632812
tp39
a(F420.071533203125
F200.52420043945312
tp40
a(F420.6915283203125
F214.04981994628906
tp41
a(F421.53564453125
F227.56446838378906
tp42
a(F422.2684631347656
F240.78524780273438
tp43
a(F423.46588134765625
F254.3578643798828
tp44
a(F424.38372802734375
F267.5351867675781
tp45
a(F425.19915771484375
F281.57745361328125
tp46
a(F426.16668701171875
F294.7112731933594
tp47
a(F427.3687438964844
F308.17462158203125
tp48
a(F427.6667175292969
F321.6382751464844
tp49
a(F428.80255126953125
F335.4681701660156
tp50
a(F430.0149841308594
F349.13323974609375
tp51
a(F402.75726318359375
F134.83099365234375
tp52
a(F403.2022705078125
F147.66806030273438
tp53
a(F403.8792419433594
F161.4747772216797
tp54
a(F404.5890197753906
F174.58908081054688
tp55
a(F405.4699401855469
F188.3701171875
tp56
a(F406.510986328125
F201.02862548828125
tp57
a(F407.3778076171875
F214.65394592285156
tp58
a(F408.40667724609375
F228.28382873535156
tp59
a(F409.3351745605469
F241.71151733398438
tp60
a(F409.9653625488281
F254.9754180908203
tp61
a(F410.68304443359375
F268.5693664550781
tp62
a(F411.6842346191406
F282.01416015625
tp63
a(F412.4908752441406
F295.4092102050781
tp64
a(F413.4648132324219
F308.6611328125
tp65
a(F414.0487365722656
F322.5401306152344
tp66
a(F414.9389953613281
F336.171142578125
tp67
a(F416.1082458496094
F350.3388671875
tp68
a(F389.3327941894531
F135.47470092773438
tp69
a(F390.1529541015625
F149.04409790039062
tp70
a(F390.7088623046875
F162.26744079589844
tp71
a(F391.6195373535156
F175.9484405517578
tp72
a(F392.18890380859375
F189.1501922607422
tp73
a(F393.1095275878906
F202.30899047851562
tp74
a(F393.6944885253906
F215.233154296875
tp75
a(F394.5790100097656
F229.17337036132812
tp76
a(F395.5807189941406
F242.31301879882812
tp77
a(F396.32208251953125
F255.7644500732422
tp78
a(F397.7115478515625
F268.8997802734375
tp79
a(F398.16668701171875
F282.740478515625
tp80
a(F398.82000732421875
F295.9642333984375
tp81
a(F399.5841064453125
F309.9803161621094
tp82
a(F400.5539245605469
F323.4794006347656
tp83
a(F401.84027099609375
F337.4315185546875
tp84
a(F402.1456298828125
F350.7087707519531
tp85
a(F375.91827392578125
F136.281005859375
tp86
a(F376.3110046386719
F149.75100708007812
tp87
a(F377.4959716796875
F163.08154296875
tp88
a(F378.45001220703125
F176.76620483398438
tp89
a(F378.8517761230469
F189.68905639648438
tp90
a(F379.9613952636719
F202.7707061767578
tp91
a(F380.4526062011719
F216.4926300048828
tp92
a(F381.2459716796875
F229.9080810546875
tp93
a(F382.0864562988281
F243.25393676757812
tp94
a(F383.121826171875
F256.2118835449219
tp95
a(F383.6598815917969
F270.0697937011719
tp96
a(F384.6546325683594
F283.4752197265625
tp97
a(F385.6700439453125
F297.077392578125
tp98
a(F386.2812194824219
F310.6693420410156
tp99
a(F387.22808837890625
F324.2215576171875
tp100
a(F387.9707336425781
F337.5538024902344
tp101
a(F389.0528259277344
F351.74346923828125
tp102
a(F361.969970703125
F137.06289672851562
tp103
a(F362.9555358886719
F150.97817993164062
tp104
a(F363.6351318359375
F163.9037322998047
tp105
a(F364.3667907714844
F177.40989685058594
tp106
a(F365.58477783203125
F190.40704345703125
tp107
a(F365.67718505859375
F203.88818359375
tp108
a(F366.74072265625
F216.8963623046875
tp109
a(F367.6109924316406
F230.2831573486328
tp110
a(F368.4822692871094
F244.0314178466797
tp111
a(F369.2380676269531
F257.69366455078125
tp112
a(F370.03173828125
F270.89093017578125
tp113
a(F370.9154052734375
F284.3041076660156
tp114
a(F371.5604248046875
F297.95477294921875
tp115
a(F372.5350341796875
F311.4386291503906
tp116
a(F373.560302734375
F324.52239990234375
tp117
a(F373.909423828125
F338.7705993652344
tp118
a(F375.3805847167969
F352.23040771484375
tp119
a(F348.7086486816406
F138.2523193359375
tp120
a(F349.5525207519531
F151.19772338867188
tp121
a(F350.0324401855469
F164.810302734375
tp122
a(F350.89068603515625
F177.94723510742188
tp123
a(F351.6915588378906
F191.34349060058594
tp124
a(F352.4723205566406
F204.6210174560547
tp125
a(F353.334228515625
F218.3870086669922
tp126
a(F354.0815124511719
F231.47576904296875
tp127
a(F354.8424377441406
F244.58657836914062
tp128
a(F355.7319641113281
F258.01104736328125
tp129
a(F356.4290771484375
F271.39984130859375
tp130
a(F357.3979187011719
F285.20330810546875
tp131
a(F358.1642150878906
F298.5342102050781
tp132
a(F358.9798889160156
F312.0069885253906
tp133
a(F359.7802734375
F325.74444580078125
tp134
a(F360.66534423828125
F339.6487121582031
tp135
a(F361.79522705078125
F353.200927734375
tp136
a(F335.59588623046875
F138.81076049804688
tp137
a(F336.2008361816406
F152.61167907714844
tp138
a(F336.7746887207031
F165.6820831298828
tp139
a(F337.7796936035156
F178.93417358398438
tp140
a(F338.6524963378906
F192.22288513183594
tp141
a(F339.2854309082031
F205.75660705566406
tp142
a(F339.78045654296875
F218.67446899414062
tp143
a(F340.80230712890625
F232.30714416503906
tp144
a(F341.52044677734375
F245.7132568359375
tp145
a(F342.2106628417969
F259.1062316894531
tp146
a(F343.3074035644531
F272.0810546875
tp147
a(F344.1180725097656
F285.8605651855469
tp148
a(F344.48870849609375
F299.6319274902344
tp149
a(F345.6704406738281
F312.70159912109375
tp150
a(F346.2027587890625
F326.1164245605469
tp151
a(F347.4999694824219
F340.0232849121094
tp152
a(F347.8868408203125
F353.9909973144531
tp153
a(F321.79205322265625
F139.75082397460938
tp154
a(F322.4632873535156
F152.811279296875
tp155
a(F323.600341796875
F166.3424530029297
tp156
a(F324.3831787109375
F179.62347412109375
tp157
a(F324.99615478515625
F193.0614013671875
tp158
a(F325.71478271484375
F206.4022216796875
tp159
a(F326.4570007324219
F219.4948272705078
tp160
a(F327.6192626953125
F233.10618591308594
tp161
a(F328.07391357421875
F246.5283966064453
tp162
a(F328.7177429199219
F259.98028564453125
tp163
a(F329.92877197265625
F273.07843017578125
tp164
a(F330.3044738769531
F286.5008850097656
tp165
a(F331.4142150878906
F300.227294921875
tp166
a(F331.8719787597656
F313.5672607421875
tp167
a(F333.1437683105469
F327.34686279296875
tp168
a(F333.8072509765625
F341.2354431152344
tp169
a(F334.498046875
F354.5205078125
tp170
a(F308.1740417480469
F140.73143005371094
tp171
a(F309.00830078125
F153.98606872558594
tp172
a(F309.90484619140625
F166.99575805664062
tp173
a(F310.3695068359375
F180.65591430664062
tp174
a(F311.3317565917969
F193.92510986328125
tp175
a(F312.15625
F207.28744506835938
tp176
a(F312.9840087890625
F220.2485809326172
tp177
a(F313.7560729980469
F233.94667053222656
tp178
a(F314.19512939453125
F247.16468811035156
tp179
a(F315.3892822265625
F260.19500732421875
tp180
a(F316.0124816894531
F273.76776123046875
tp181
a(F317.0262756347656
F287.8526306152344
tp182
a(F317.64495849609375
F301.01837158203125
tp183
a(F318.3521728515625
F314.3584899902344
tp184
a(F319.23931884765625
F328.05609130859375
tp185
a(F320.03350830078125
F342.0185546875
tp186
a(F320.6997375488281
F355.34027099609375
tp187
a(F295.387939453125
F141.5885772705078
tp188
a(F296.0953369140625
F154.82691955566406
tp189
a(F296.79754638671875
F167.9771728515625
tp190
a(F297.4774475097656
F181.43331909179688
tp191
a(F297.9934387207031
F194.7518310546875
tp192
a(F298.9762878417969
F208.02354431152344
tp193
a(F299.8914794921875
F221.36012268066406
tp194
a(F300.2984619140625
F234.59320068359375
tp195
a(F301.0165100097656
F248.17578125
tp196
a(F301.77838134765625
F261.34698486328125
tp197
a(F302.4122314453125
F274.3627014160156
tp198
a(F303.6559143066406
F288.3335876464844
tp199
a(F304.158203125
F301.6920471191406
tp200
a(F304.9265441894531
F315.4251708984375
tp201
a(F305.8597412109375
F328.7016906738281
tp202
a(F306.4293518066406
F342.46148681640625
tp203
a(F307.64007568359375
F356.0611572265625
tp204
a(F281.6954040527344
F142.50949096679688
tp205
a(F282.3782043457031
F155.45016479492188
tp206
a(F283.46112060546875
F168.8090362548828
tp207
a(F284.0563659667969
F182.47630310058594
tp208
a(F284.7286376953125
F195.57244873046875
tp209
a(F285.56683349609375
F208.48226928710938
tp210
a(F286.35345458984375
F222.0900115966797
tp211
a(F287.10870361328125
F235.70277404785156
tp212
a(F287.8943176269531
F248.8824005126953
tp213
a(F288.4793701171875
F262.2334899902344
tp214
a(F289.4851379394531
F275.8321533203125
tp215
a(F290.03057861328125
F289.4124755859375
tp216
a(F290.6503601074219
F302.37298583984375
tp217
a(F291.793701171875
F316.14306640625
tp218
a(F292.0762634277344
F329.62060546875
tp219
a(F293.44329833984375
F343.72857666015625
tp220
a(F293.9139099121094
F357.2455139160156
tp221
a(F268.3514099121094
F143.31959533691406
tp222
a(F269.2427673339844
F156.10264587402344
tp223
a(F270.0578918457031
F169.43650817871094
tp224
a(F270.56658935546875
F183.15985107421875
tp225
a(F271.45892333984375
F196.34945678710938
tp226
a(F272.32769775390625
F209.4100799560547
tp227
a(F272.88067626953125
F222.4287567138672
tp228
a(F273.7566223144531
F236.42127990722656
tp229
a(F274.38201904296875
F249.6358642578125
tp230
a(F275.55889892578125
F263.021728515625
tp231
a(F276.08575439453125
F276.3170166015625
tp232
a(F276.329345703125
F289.8783264160156
tp233
a(F277.5571594238281
F303.5751647949219
tp234
a(F278.173095703125
F316.7833251953125
tp235
a(F278.9305419921875
F330.1611328125
tp236
a(F279.7816467285156
F344.25732421875
tp237
a(F280.345458984375
F357.7249755859375
tp238
a(F254.7540740966797
F143.9124755859375
tp239
a(F255.7156219482422
F157.14443969726562
tp240
a(F256.4454040527344
F170.5135955810547
tp241
a(F257.06829833984375
F183.9973602294922
tp242
a(F257.79498291015625
F197.35147094726562
tp243
a(F258.4654846191406
F210.3637237548828
tp244
a(F259.14990234375
F223.9228515625
tp245
a(F260.17437744140625
F237.1293182373047
tp246
a(F260.5364074707031
F250.40708923339844
tp247
a(F261.5855712890625
F263.85321044921875
tp248
a(F262.1223449707031
F277.0887145996094
tp249
a(F262.9670715332031
F290.960693359375
tp250
a(F263.84136962890625
F304.35040283203125
tp251
a(F264.3800048828125
F317.7791748046875
tp252
a(F265.37603759765625
F331.49078369140625
tp253
a(F265.8626403808594
F345.3953857421875
tp254
a(F266.5345153808594
F358.56170654296875
tp255
a(F241.52145385742188
F144.98277282714844
tp256
a(F242.27456665039062
F157.8226776123047
tp257
a(F243.24957275390625
F171.83204650878906
tp258
a(F243.92715454101562
F185.04159545898438
tp259
a(F244.5832977294922
F198.03599548339844
tp260
a(F245.6486053466797
F211.3876953125
tp261
a(F246.0702362060547
F224.47523498535156
tp262
a(F246.87063598632812
F238.1017608642578
tp263
a(F247.72134399414062
F251.66954040527344
tp264
a(F248.0594482421875
F264.50909423828125
tp265
a(F248.65316772460938
F277.9999084472656
tp266
a(F249.6135711669922
F291.7504577636719
tp267
a(F250.2113494873047
F305.2237854003906
tp268
a(F250.8858642578125
F318.3590393066406
tp269
a(F251.85853576660156
F332.02703857421875
tp270
a(F252.3087158203125
F346.0289611816406
tp271
a(F253.46263122558594
F359.5628356933594
tp272
a(F227.98472595214844
F145.51095581054688
tp273
a(F228.8405303955078
F158.96424865722656
tp274
a(F229.71224975585938
F172.1306610107422
tp275
a(F230.42169189453125
F185.5587921142578
tp276
a(F231.2109375
F198.95277404785156
tp277
a(F231.84388732910156
F212.17486572265625
tp278
a(F232.5087127685547
F225.48291015625
tp279
a(F233.61412048339844
F239.05535888671875
tp280
a(F234.04359436035156
F252.28448486328125
tp281
a(F234.7772674560547
F265.92718505859375
tp282
a(F235.78646850585938
F278.9637451171875
tp283
a(F236.2147216796875
F292.56695556640625
tp284
a(F236.91177368164062
F305.99407958984375
tp285
a(F237.86691284179688
F319.7170715332031
tp286
a(F238.0911102294922
F333.019287109375
tp287
a(F239.14407348632812
F346.5876159667969
tp288
a(F239.84385681152344
F360.23687744140625
tp289
a.